; Function Attrs: inlinehint nounwind uwtable
define internal fastcc void @Tas_ManSaveModel(ptr noundef captures(none) initializes((64, 68)) %0, ptr noundef captures(none) initializes((4, 8)) %1) unnamed_addr #10 {
  %3 = getelementptr inbounds nuw i8, ptr %1, i64 4
  store i32 0, ptr %3, align 4, !tbaa !38
  %4 = getelementptr inbounds nuw i8, ptr %0, i64 64
  store i32 0, ptr %4, align 8, !tbaa !70
  %5 = getelementptr inbounds nuw i8, ptr %0, i64 80
  %6 = getelementptr inbounds nuw i8, ptr %0, i64 68
  %7 = load i32, ptr %6, align 4, !tbaa !71
  %8 = icmp sgt i32 %7, 0
  br i1 %8, label %.lr.ph, label %.critedge

.lr.ph:                                           ; preds = %2
  %.phi.trans.insert.i = getelementptr inbounds nuw i8, ptr %1, i64 8
  br label %9

9:                                                ; preds = %.lr.ph, %51
  %10 = phi i32 [ %7, %.lr.ph ], [ %52, %51 ]
  %indvars.iv = phi i64 [ 0, %.lr.ph ], [ %indvars.iv.next, %51 ]
  %11 = load ptr, ptr %5, align 8, !tbaa !33
  %12 = getelementptr inbounds nuw ptr, ptr %11, i64 %indvars.iv
  %13 = load ptr, ptr %12, align 8, !tbaa !72
  %.not = icmp eq ptr %13, null
  br i1 %.not, label %.critedge, label %14

14:                                               ; preds = %9
  %.val14 = load i64, ptr %13, align 4
  %15 = and i64 %.val14, 2684354559
  %narrow.i.not = icmp eq i64 %15, 2684354559
  br i1 %narrow.i.not, label %16, label %51

16:                                               ; preds = %14
  %17 = lshr i64 %.val14, 62
  %18 = trunc nuw nsw i64 %17 to i32
  %19 = and i32 %18, 1
  %sh.diff = lshr i64 %.val14, 31
  %tr.sh.diff = trunc i64 %sh.diff to i32
  %20 = and i32 %tr.sh.diff, 1073741822
  %21 = or disjoint i32 %19, %20
  %22 = xor i32 %21, 1
  %23 = load i32, ptr %3, align 4, !tbaa !38
  %24 = load i32, ptr %1, align 8, !tbaa !40
  %25 = icmp eq i32 %23, %24
  br i1 %25, label %26, label %.Vec_IntGrow.exit10_crit_edge.i

.Vec_IntGrow.exit10_crit_edge.i:                  ; preds = %16
  %.pre.i = load ptr, ptr %.phi.trans.insert.i, align 8, !tbaa !41
  br label %Vec_IntPush.exit

26:                                               ; preds = %16
  %27 = icmp slt i32 %23, 16
  br i1 %27, label %28, label %35

28:                                               ; preds = %26
  %29 = load ptr, ptr %.phi.trans.insert.i, align 8, !tbaa !41
  %.not9.i.i = icmp eq ptr %29, null
  br i1 %.not9.i.i, label %32, label %30

30:                                               ; preds = %28
  %31 = tail call dereferenceable_or_null(64) ptr @realloc(ptr noundef nonnull %29, i64 noundef 64) #26
  br label %Vec_IntGrow.exit.i

32:                                               ; preds = %28
  %33 = tail call noalias dereferenceable_or_null(64) ptr @malloc(i64 noundef 64) #24
  br label %Vec_IntGrow.exit.i

Vec_IntGrow.exit.i:                               ; preds = %32, %30
  %34 = phi ptr [ %31, %30 ], [ %33, %32 ]
  store ptr %34, ptr %.phi.trans.insert.i, align 8, !tbaa !41
  store i32 16, ptr %1, align 8, !tbaa !40
  br label %Vec_IntPush.exit

35:                                               ; preds = %26
  %36 = shl nuw nsw i32 %23, 1
  %37 = load ptr, ptr %.phi.trans.insert.i, align 8, !tbaa !41
  %.not9.i9.i = icmp eq ptr %37, null
  %38 = zext nneg i32 %36 to i64
  %39 = shl nuw nsw i64 %38, 2
  br i1 %.not9.i9.i, label %42, label %40

40:                                               ; preds = %35
  %41 = tail call ptr @realloc(ptr noundef nonnull %37, i64 noundef %39) #26
  br label %44

42:                                               ; preds = %35
  %43 = tail call noalias ptr @malloc(i64 noundef %39) #24
  br label %44

44:                                               ; preds = %42, %40
  %45 = phi ptr [ %41, %40 ], [ %43, %42 ]
  store ptr %45, ptr %.phi.trans.insert.i, align 8, !tbaa !41
  store i32 %36, ptr %1, align 8, !tbaa !40
  br label %Vec_IntPush.exit

Vec_IntPush.exit:                                 ; preds = %.Vec_IntGrow.exit10_crit_edge.i, %Vec_IntGrow.exit.i, %44
  %46 = phi ptr [ %.pre.i, %.Vec_IntGrow.exit10_crit_edge.i ], [ %45, %44 ], [ %34, %Vec_IntGrow.exit.i ]
  %47 = load i32, ptr %3, align 4, !tbaa !38
  %48 = add nsw i32 %47, 1
  store i32 %48, ptr %3, align 4, !tbaa !38
  %49 = sext i32 %47 to i64
  %50 = getelementptr inbounds i32, ptr %46, i64 %49
  store i32 %22, ptr %50, align 4, !tbaa !75
  %.pre = load i32, ptr %6, align 4, !tbaa !71
  br label %51

51:                                               ; preds = %14, %Vec_IntPush.exit
  %52 = phi i32 [ %10, %14 ], [ %.pre, %Vec_IntPush.exit ]
  %indvars.iv.next = add nuw nsw i64 %indvars.iv, 1
  %53 = sext i32 %52 to i64
  %54 = icmp slt i64 %indvars.iv.next, %53
  br i1 %54, label %9, label %.critedge, !llvm.loop !117

.critedge:                                        ; preds = %9, %51, %2
  ret void
}